target datalayout = "e-m:e-p270:32:32-p271:32:32-p272:64:64-i64:64-i128:128-f80:128-n8:16:32:64-S128"
target triple = "x86_64-pc-linux-gnu"

%struct._stat_tap_table = type { ptr, ptr, i32, i32, ptr }

; Function Attrs: null_pointer_is_valid sspstrong uwtable
define ptr @stat_tap_init_table(ptr noundef %0, i32 noundef %1, i32 noundef %2, ptr noundef %3) #0 {
  %5 = alloca ptr, align 8
  %6 = alloca i32, align 4
  %7 = alloca i32, align 4
  %8 = alloca ptr, align 8
  %9 = alloca ptr, align 8
  %10 = alloca i64, align 8
  %11 = alloca i64, align 8
  %12 = alloca ptr, align 8
  %13 = alloca ptr, align 8
  %14 = alloca i64, align 8
  %15 = alloca i64, align 8
  %16 = alloca ptr, align 8
  %17 = alloca ptr, align 8
  store ptr %0, ptr %5, align 8
  store i32 %1, ptr %6, align 4
  store i32 %2, ptr %7, align 4
  store ptr %3, ptr %8, align 8
  call void @llvm.lifetime.start.p0(i64 8, ptr %9) #13
  call void @llvm.lifetime.start.p0(i64 8, ptr %10) #13
  store i64 1, ptr %10, align 8
  call void @llvm.lifetime.start.p0(i64 8, ptr %11) #13
  store i64 32, ptr %11, align 8
  call void @llvm.lifetime.start.p0(i64 8, ptr %12) #13
  %18 = load i64, ptr %11, align 8
  %19 = icmp eq i64 %18, 1
  br i1 %19, label %20, label %23

20:                                               ; preds = %4
  %21 = load i64, ptr %10, align 8
  %22 = call noalias ptr @g_malloc0(i64 noundef %21) #16
  store ptr %22, ptr %12, align 8
  br label %44

23:                                               ; preds = %4
  %24 = load i64, ptr %10, align 8
  %25 = call i1 @llvm.is.constant.i64(i64 %24)
  br i1 %25, label %26, label %39

26:                                               ; preds = %23
  %27 = load i64, ptr %11, align 8
  %28 = icmp eq i64 %27, 0
  br i1 %28, label %34, label %29

29:                                               ; preds = %26
  %30 = load i64, ptr %10, align 8
  %31 = load i64, ptr %11, align 8
  %32 = udiv i64 -1, %31
  %33 = icmp ule i64 %30, %32
  br i1 %33, label %34, label %39

34:                                               ; preds = %29, %26
  %35 = load i64, ptr %10, align 8
  %36 = load i64, ptr %11, align 8
  %37 = mul i64 %35, %36
  %38 = call noalias ptr @g_malloc0(i64 noundef %37) #16
  store ptr %38, ptr %12, align 8
  br label %43

39:                                               ; preds = %29, %23
  %40 = load i64, ptr %10, align 8
  %41 = load i64, ptr %11, align 8
  %42 = call noalias ptr @g_malloc0_n(i64 noundef %40, i64 noundef %41) #17
  store ptr %42, ptr %12, align 8
  br label %43

43:                                               ; preds = %39, %34
  br label %44

44:                                               ; preds = %43, %20
  %45 = load ptr, ptr %12, align 8
  store ptr %45, ptr %13, align 8
  call void @llvm.lifetime.end.p0(i64 8, ptr %12) #13
  call void @llvm.lifetime.end.p0(i64 8, ptr %11) #13
  call void @llvm.lifetime.end.p0(i64 8, ptr %10) #13
  %46 = load ptr, ptr %13, align 8
  store ptr %46, ptr %9, align 8
  %47 = load ptr, ptr %5, align 8
  %48 = load ptr, ptr %9, align 8
  %49 = getelementptr inbounds nuw %struct._stat_tap_table, ptr %48, i32 0, i32 0
  store ptr %47, ptr %49, align 8
  %50 = load i32, ptr %7, align 4
  %51 = load ptr, ptr %9, align 8
  %52 = getelementptr inbounds nuw %struct._stat_tap_table, ptr %51, i32 0, i32 3
  store i32 %50, ptr %52, align 4
  %53 = load i32, ptr %6, align 4
  %54 = load ptr, ptr %9, align 8
  %55 = getelementptr inbounds nuw %struct._stat_tap_table, ptr %54, i32 0, i32 2
  store i32 %53, ptr %55, align 8
  %56 = load ptr, ptr %8, align 8
  %57 = load ptr, ptr %9, align 8
  %58 = getelementptr inbounds nuw %struct._stat_tap_table, ptr %57, i32 0, i32 1
  store ptr %56, ptr %58, align 8
  call void @llvm.lifetime.start.p0(i64 8, ptr %14) #13
  %59 = load i32, ptr %7, align 4
  %60 = sext i32 %59 to i64
  store i64 %60, ptr %14, align 8
  call void @llvm.lifetime.start.p0(i64 8, ptr %15) #13
  store i64 8, ptr %15, align 8
  call void @llvm.lifetime.start.p0(i64 8, ptr %16) #13
  %61 = load i64, ptr %15, align 8
  %62 = icmp eq i64 %61, 1
  br i1 %62, label %63, label %66

63:                                               ; preds = %44
  %64 = load i64, ptr %14, align 8
  %65 = call noalias ptr @g_malloc0(i64 noundef %64) #16
  store ptr %65, ptr %16, align 8
  br label %87

66:                                               ; preds = %44
  %67 = load i64, ptr %14, align 8
  %68 = call i1 @llvm.is.constant.i64(i64 %67)
  br i1 %68, label %69, label %82

69:                                               ; preds = %66
  %70 = load i64, ptr %15, align 8
  %71 = icmp eq i64 %70, 0
  br i1 %71, label %77, label %72

72:                                               ; preds = %69
  %73 = load i64, ptr %14, align 8
  %74 = load i64, ptr %15, align 8
  %75 = udiv i64 -1, %74
  %76 = icmp ule i64 %73, %75
  br i1 %76, label %77, label %82

77:                                               ; preds = %72, %69
  %78 = load i64, ptr %14, align 8
  %79 = load i64, ptr %15, align 8
  %80 = mul i64 %78, %79
  %81 = call noalias ptr @g_malloc0(i64 noundef %80) #16
  store ptr %81, ptr %16, align 8
  br label %86

82:                                               ; preds = %72, %66
  %83 = load i64, ptr %14, align 8
  %84 = load i64, ptr %15, align 8
  %85 = call noalias ptr @g_malloc0_n(i64 noundef %83, i64 noundef %84) #17
  store ptr %85, ptr %16, align 8
  br label %86

86:                                               ; preds = %82, %77
  br label %87

87:                                               ; preds = %86, %63
  %88 = load ptr, ptr %16, align 8
  store ptr %88, ptr %17, align 8
  call void @llvm.lifetime.end.p0(i64 8, ptr %16) #13
  call void @llvm.lifetime.end.p0(i64 8, ptr %15) #13
  call void @llvm.lifetime.end.p0(i64 8, ptr %14) #13
  %89 = load ptr, ptr %17, align 8
  %90 = load ptr, ptr %9, align 8
  %91 = getelementptr inbounds nuw %struct._stat_tap_table, ptr %90, i32 0, i32 4
  store ptr %89, ptr %91, align 8
  %92 = load ptr, ptr %9, align 8
  call void @llvm.lifetime.end.p0(i64 8, ptr %9) #13
  ret ptr %92
}