; Function Attrs: null_pointer_is_valid sspstrong uwtable
define noalias noundef ptr @stat_tap_init_table(ptr noundef %0, i32 noundef %1, i32 noundef %2, ptr noundef %3) local_unnamed_addr #0 {
  %5 = tail call noalias dereferenceable_or_null(32) ptr @g_malloc0(i64 noundef 32) #13
  store ptr %0, ptr %5, align 8
  %6 = getelementptr inbounds nuw i8, ptr %5, i64 20
  store i32 %2, ptr %6, align 4
  %7 = getelementptr inbounds nuw i8, ptr %5, i64 16
  store i32 %1, ptr %7, align 8
  %8 = getelementptr inbounds nuw i8, ptr %5, i64 8
  store ptr %3, ptr %8, align 8
  %9 = sext i32 %2 to i64
  %10 = tail call noalias ptr @g_malloc0_n(i64 noundef %9, i64 noundef 8) #14
  %11 = getelementptr inbounds nuw i8, ptr %5, i64 24
  store ptr %10, ptr %11, align 8
  ret ptr %5
}